target datalayout = "e-m:e-p270:32:32-p271:32:32-p272:64:64-i64:64-i128:128-f80:128-n8:16:32:64-S128"
target triple = "x86_64-pc-linux-gnu"

%struct.H5L_shim_data_t = type { ptr, ptr }
%struct.H5L_info1_t = type { i32, i8, i64, i32, %union.anon.6 }
%union.anon.6 = type { i64 }
%struct.H5L_info2_t = type { i32, i8, i64, i32, %union.anon.5 }
%union.anon.5 = type { i64, [8 x i8] }

@.str = private unnamed_addr constant [103 x i8] c"generated/home/dtcxzyw/WorkSpace/Projects/compilers/llvm-opt-benchmark/bench/hdf5/hdf5/src/H5Ldeprec.c\00", align 1
@H5E_LINK_g = external global i64, align 8
@H5E_CANTUNSERIALIZE_g = external global i64, align 8
@.str.19 = private unnamed_addr constant [44 x i8] c"can't deserialize object token into address\00", align 1
@__func__.H5L__iterate2_shim = private unnamed_addr constant [19 x i8] c"H5L__iterate2_shim\00", align 1

; Function Attrs: nounwind uwtable
define internal i32 @H5L__iterate2_shim(i64 noundef %0, ptr noundef %1, ptr noundef %2, ptr noundef %3) #0 {
  %5 = alloca i64, align 8
  %6 = alloca ptr, align 8
  %7 = alloca ptr, align 8
  %8 = alloca ptr, align 8
  %9 = alloca ptr, align 8
  %10 = alloca %struct.H5L_info1_t, align 8
  %11 = alloca i32, align 4
  %12 = alloca i8, align 1
  store i64 %0, ptr %5, align 8
  store ptr %1, ptr %6, align 8
  store ptr %2, ptr %7, align 8
  store ptr %3, ptr %8, align 8
  %13 = load ptr, ptr %8, align 8
  store ptr %13, ptr %9, align 8
  store i32 0, ptr %11, align 4
  store i8 0, ptr %12, align 1
  %14 = load ptr, ptr %7, align 8
  %15 = icmp ne ptr %14, null
  br i1 %15, label %16, label %72

16:                                               ; preds = %4
  %17 = load ptr, ptr %7, align 8
  %18 = getelementptr inbounds %struct.H5L_info2_t, ptr %17, i32 0, i32 0
  %19 = load i32, ptr %18, align 8
  %20 = getelementptr inbounds %struct.H5L_info1_t, ptr %10, i32 0, i32 0
  store i32 %19, ptr %20, align 8
  %21 = load ptr, ptr %7, align 8
  %22 = getelementptr inbounds %struct.H5L_info2_t, ptr %21, i32 0, i32 1
  %23 = load i8, ptr %22, align 4
  %24 = trunc i8 %23 to i1
  %25 = getelementptr inbounds %struct.H5L_info1_t, ptr %10, i32 0, i32 1
  %26 = zext i1 %24 to i8
  store i8 %26, ptr %25, align 4
  %27 = load ptr, ptr %7, align 8
  %28 = getelementptr inbounds %struct.H5L_info2_t, ptr %27, i32 0, i32 2
  %29 = load i64, ptr %28, align 8
  %30 = getelementptr inbounds %struct.H5L_info1_t, ptr %10, i32 0, i32 2
  store i64 %29, ptr %30, align 8
  %31 = load ptr, ptr %7, align 8
  %32 = getelementptr inbounds %struct.H5L_info2_t, ptr %31, i32 0, i32 3
  %33 = load i32, ptr %32, align 8
  %34 = getelementptr inbounds %struct.H5L_info1_t, ptr %10, i32 0, i32 3
  store i32 %33, ptr %34, align 8
  %35 = load ptr, ptr %7, align 8
  %36 = getelementptr inbounds %struct.H5L_info2_t, ptr %35, i32 0, i32 0
  %37 = load i32, ptr %36, align 8
  %38 = icmp eq i32 0, %37
  br i1 %38, label %39, label %66

39:                                               ; preds = %16
  %40 = load i64, ptr %5, align 8
  %41 = load ptr, ptr %7, align 8
  %42 = getelementptr inbounds %struct.H5L_info2_t, ptr %41, i32 0, i32 4
  %43 = getelementptr inbounds %struct.H5L_info1_t, ptr %10, i32 0, i32 4
  %44 = getelementptr inbounds { i64, i64 }, ptr %42, i32 0, i32 0
  %45 = load i64, ptr %44, align 8
  %46 = getelementptr inbounds { i64, i64 }, ptr %42, i32 0, i32 1
  %47 = load i64, ptr %46, align 8
  %48 = call i32 @H5VLnative_token_to_addr(i64 noundef %40, i64 %45, i64 %47, ptr noundef %43)
  %49 = icmp slt i32 %48, 0
  br i1 %49, label %50, label %65

50:                                               ; preds = %39
  br label %51

51:                                               ; preds = %50
  br label %52

52:                                               ; preds = %51
  br label %53

53:                                               ; preds = %52
  %54 = load i64, ptr @H5E_LINK_g, align 8
  %55 = load i64, ptr @H5E_CANTUNSERIALIZE_g, align 8
  %56 = call i32 (ptr, ptr, i32, i64, i64, ptr, ...) @H5E_printf_stack(ptr noundef @.str, ptr noundef @__func__.H5L__iterate2_shim, i32 noundef 106, i64 noundef %54, i64 noundef %55, ptr noundef @.str.19)
  br label %57

57:                                               ; preds = %53
  store i8 1, ptr %12, align 1
  %58 = load i8, ptr %12, align 1
  %59 = trunc i8 %58 to i1
  %60 = zext i1 %59 to i8
  store i8 %60, ptr %12, align 1
  br label %61

61:                                               ; preds = %57
  br label %62

62:                                               ; preds = %61
  store i32 -1, ptr %11, align 4
  br label %82

63:                                               ; No predecessors!
  br label %64

64:                                               ; preds = %63
  br label %65

65:                                               ; preds = %64, %39
  br label %71

66:                                               ; preds = %16
  %67 = load ptr, ptr %7, align 8
  %68 = getelementptr inbounds %struct.H5L_info2_t, ptr %67, i32 0, i32 4
  %69 = load i64, ptr %68, align 8
  %70 = getelementptr inbounds %struct.H5L_info1_t, ptr %10, i32 0, i32 4
  store i64 %69, ptr %70, align 8
  br label %71

71:                                               ; preds = %66, %65
  br label %72

72:                                               ; preds = %71, %4
  %73 = load ptr, ptr %9, align 8
  %74 = getelementptr inbounds %struct.H5L_shim_data_t, ptr %73, i32 0, i32 0
  %75 = load ptr, ptr %74, align 8
  %76 = load i64, ptr %5, align 8
  %77 = load ptr, ptr %6, align 8
  %78 = load ptr, ptr %9, align 8
  %79 = getelementptr inbounds %struct.H5L_shim_data_t, ptr %78, i32 0, i32 1
  %80 = load ptr, ptr %79, align 8
  %81 = call i32 %75(i64 noundef %76, ptr noundef %77, ptr noundef %10, ptr noundef %80)
  store i32 %81, ptr %11, align 4
  br label %82

82:                                               ; preds = %72, %62
  %83 = load i32, ptr %11, align 4
  ret i32 %83
}