; Function Attrs: nounwind uwtable
define internal i32 @H5L__iterate2_shim(i64 noundef %0, ptr noundef %1, ptr noundef readonly %2, ptr nocapture noundef readonly %3) #0 {
  %5 = alloca %struct.H5L_info1_t, align 8
  %.not = icmp eq ptr %2, null
  br i1 %.not, label %34, label %6

6:                                                ; preds = %4
  %7 = load i32, ptr %2, align 8
  store i32 %7, ptr %5, align 8
  %8 = getelementptr inbounds i8, ptr %2, i64 4
  %9 = load i8, ptr %8, align 4
  %10 = getelementptr inbounds i8, ptr %5, i64 4
  %11 = and i8 %9, 1
  store i8 %11, ptr %10, align 4
  %12 = getelementptr inbounds i8, ptr %2, i64 8
  %13 = load i64, ptr %12, align 8
  %14 = getelementptr inbounds i8, ptr %5, i64 8
  store i64 %13, ptr %14, align 8
  %15 = getelementptr inbounds i8, ptr %2, i64 16
  %16 = load i32, ptr %15, align 8
  %17 = getelementptr inbounds i8, ptr %5, i64 16
  store i32 %16, ptr %17, align 8
  %18 = icmp eq i32 %7, 0
  %19 = getelementptr inbounds i8, ptr %2, i64 24
  br i1 %18, label %20, label %31

20:                                               ; preds = %6
  %21 = getelementptr inbounds i8, ptr %5, i64 24
  %22 = load i64, ptr %19, align 8
  %23 = getelementptr inbounds i8, ptr %2, i64 32
  %24 = load i64, ptr %23, align 8
  %25 = call i32 @H5VLnative_token_to_addr(i64 noundef %0, i64 %22, i64 %24, ptr noundef nonnull %21) #2
  %26 = icmp slt i32 %25, 0
  br i1 %26, label %27, label %34

27:                                               ; preds = %20
  %28 = load i64, ptr @H5E_LINK_g, align 8
  %29 = load i64, ptr @H5E_CANTUNSERIALIZE_g, align 8
  %30 = call i32 (ptr, ptr, i32, i64, i64, ptr, ...) @H5E_printf_stack(ptr noundef nonnull @.str, ptr noundef nonnull @__func__.H5L__iterate2_shim, i32 noundef 106, i64 noundef %28, i64 noundef %29, ptr noundef nonnull @.str.19) #2
  br label %39

31:                                               ; preds = %6
  %32 = load i64, ptr %19, align 8
  %33 = getelementptr inbounds i8, ptr %5, i64 24
  store i64 %32, ptr %33, align 8
  br label %34

34:                                               ; preds = %31, %20, %4
  %35 = load ptr, ptr %3, align 8
  %36 = getelementptr inbounds i8, ptr %3, i64 8
  %37 = load ptr, ptr %36, align 8
  %38 = call i32 %35(i64 noundef %0, ptr noundef %1, ptr noundef nonnull %5, ptr noundef %37) #2
  br label %39

39:                                               ; preds = %34, %27
  %.0 = phi i32 [ -1, %27 ], [ %38, %34 ]
  ret i32 %.0
}